; Function Attrs: mustprogress uwtable
define hidden noundef i32 @_ZNK4cvc58internal18InQuantTermContext12computeValueENS0_12NodeTemplateILb0EEEjm(ptr nonnull readnone align 8 captures(none) %0, ptr noundef readonly captures(none) %1, i32 noundef %2, i64 %3) unnamed_addr #4 align 2 {
  %5 = load ptr, ptr %1, align 8, !tbaa !3
  %6 = getelementptr inbounds nuw i8, ptr %5, i64 8
  %7 = load i64, ptr %6, align 8
  %8 = trunc i64 %7 to i32
  %9 = and i32 %8, 1023
  %10 = tail call noundef zeroext i1 @_ZN4cvc58internal4kind13isClosureKindENS1_6Kind_tE(i32 noundef %9)
  %11 = select i1 %10, i32 1, i32 %2
  ret i32 %11
}